; Function Attrs: mustprogress uwtable
define { <2 x float>, float } @_ZN3vcg3tri2io10VertexGrid8GetValueEii(ptr noundef nonnull align 8 dereferenceable(16) %0, i32 noundef %1, i32 noundef %2) local_unnamed_addr #9 align 2 personality ptr @__gxx_personality_v0 {
  %4 = load i32, ptr %0, align 8
  %5 = icmp sge i32 %4, %1
  %6 = getelementptr inbounds i8, ptr %0, i64 4
  %7 = load i32, ptr %6, align 4
  %8 = icmp sge i32 %7, %2
  tail call void @llvm.assume(i1 %5)
  tail call void @llvm.assume(i1 %8)
  %9 = mul i32 %1, 20
  %10 = mul i32 %9, %2
  %11 = getelementptr inbounds i8, ptr %0, i64 8
  %12 = load ptr, ptr %11, align 8
  %13 = getelementptr inbounds i8, ptr %12, i64 4
  %14 = load i32, ptr %13, align 4
  %15 = icmp sle i32 %10, %14
  tail call void @llvm.assume(i1 %15)
  %16 = load atomic i32, ptr %12 monotonic, align 4
  %17 = icmp ugt i32 %16, 1
  br i1 %17, label %21, label %18

18:                                               ; preds = %3
  %19 = getelementptr inbounds i8, ptr %12, i64 16
  %20 = load i64, ptr %19, align 8
  %.not.i.i = icmp eq i64 %20, 24
  br i1 %.not.i.i, label %_ZN10QByteArray4dataEv.exit, label %21

21:                                               ; preds = %18, %3
  %22 = add i32 %14, 1
  %23 = getelementptr inbounds i8, ptr %12, i64 8
  %24 = load i32, ptr %23, align 8
  %.lobit.i.i.i = lshr i32 %24, 31
  tail call void @_ZN10QByteArray11reallocDataEj6QFlagsIN10QArrayData16AllocationOptionEE(ptr noundef nonnull align 8 dereferenceable(8) %11, i32 noundef %22, i32 %.lobit.i.i.i)
  %.pre.i = load ptr, ptr %11, align 8
  %.phi.trans.insert.i = getelementptr inbounds i8, ptr %.pre.i, i64 16
  %.pre1.i = load i64, ptr %.phi.trans.insert.i, align 8
  %.pre = load i32, ptr %0, align 8
  br label %_ZN10QByteArray4dataEv.exit

_ZN10QByteArray4dataEv.exit:                      ; preds = %18, %21
  %25 = phi i32 [ %4, %18 ], [ %.pre, %21 ]
  %26 = phi i64 [ 24, %18 ], [ %.pre1.i, %21 ]
  %27 = phi ptr [ %12, %18 ], [ %.pre.i, %21 ]
  %28 = getelementptr inbounds i8, ptr %27, i64 %26
  %29 = mul nsw i32 %25, %2
  %30 = add nsw i32 %29, %1
  %31 = sext i32 %30 to i64
  %32 = getelementptr inbounds %"struct.vcg::tri::io::VertexGrid::Vertex", ptr %28, i64 %31
  %33 = getelementptr inbounds i8, ptr %32, i64 4
  %34 = load <2 x float>, ptr %33, align 4
  %35 = getelementptr inbounds i8, ptr %32, i64 12
  %36 = load float, ptr %35, align 4
  %.fca.0.insert = insertvalue { <2 x float>, float } poison, <2 x float> %34, 0
  %.fca.1.insert = insertvalue { <2 x float>, float } %.fca.0.insert, float %36, 1
  ret { <2 x float>, float } %.fca.1.insert
}